; Function Attrs: alwaysinline norecurse nounwind ssp uwtable
define internal void @"_ZN6open3d4core15ParallelForCPU_IZZZNS_1t8geometry6kernel10pointcloud24GetPointMaskWithinOBBCPUERKNS0_6TensorES8_S8_S8_RS6_ENK3$_0clEvENKUlvE0_clEvEUllE_EEvRKNS0_6DeviceElRKT_.omp_outlined"(ptr noalias noundef readonly captures(none) %0, ptr noalias readnone captures(none) %1, ptr noundef nonnull readonly align 8 captures(none) dereferenceable(8) %2, ptr noundef nonnull readonly align 8 captures(none) dereferenceable(32) %3) #25 personality ptr @__gxx_personality_v0 {
  %5 = alloca i64, align 8
  %6 = alloca i64, align 8
  %7 = alloca i64, align 8
  %8 = alloca i32, align 4
  %9 = load i64, ptr %2, align 8, !tbaa !8
  %10 = icmp sgt i64 %9, 0
  br i1 %10, label %11, label %74

11:                                               ; preds = %4
  %12 = add nsw i64 %9, -1
  call void @llvm.lifetime.start.p0(i64 8, ptr nonnull %5) #26
  store i64 0, ptr %5, align 8, !tbaa !8
  call void @llvm.lifetime.start.p0(i64 8, ptr nonnull %6) #26
  store i64 %12, ptr %6, align 8, !tbaa !8
  call void @llvm.lifetime.start.p0(i64 8, ptr nonnull %7) #26
  store i64 1, ptr %7, align 8, !tbaa !8
  call void @llvm.lifetime.start.p0(i64 4, ptr nonnull %8) #26
  store i32 0, ptr %8, align 4, !tbaa !34
  %13 = load i32, ptr %0, align 4, !tbaa !34
  call void @__kmpc_for_static_init_8(ptr nonnull @1, i32 %13, i32 34, ptr nonnull %8, ptr nonnull %5, ptr nonnull %6, ptr nonnull %7, i64 1, i64 1)
  %14 = load i64, ptr %6, align 8, !tbaa !8
  %15 = call i64 @llvm.smin.i64(i64 %14, i64 %12)
  store i64 %15, ptr %6, align 8, !tbaa !8
  %16 = load i64, ptr %5, align 8, !tbaa !8
  %.not13 = icmp sgt i64 %16, %15
  br i1 %.not13, label %._crit_edge, label %.lr.ph

.lr.ph:                                           ; preds = %11
  %17 = load ptr, ptr %3, align 8, !tbaa !863
  %18 = getelementptr inbounds nuw i8, ptr %3, i64 8
  %19 = load ptr, ptr %18, align 8, !tbaa !865
  %20 = load double, ptr %19, align 8, !tbaa !132
  %21 = getelementptr inbounds nuw i8, ptr %19, i64 8
  %22 = load double, ptr %21, align 8, !tbaa !132
  %23 = getelementptr inbounds nuw i8, ptr %19, i64 16
  %24 = load double, ptr %23, align 8, !tbaa !132
  %25 = getelementptr inbounds nuw i8, ptr %3, i64 16
  %26 = load ptr, ptr %25, align 8, !tbaa !866
  %27 = load double, ptr %26, align 8, !tbaa !132
  %28 = getelementptr inbounds nuw i8, ptr %19, i64 24
  %29 = getelementptr inbounds nuw i8, ptr %19, i64 32
  %30 = getelementptr inbounds nuw i8, ptr %19, i64 40
  %31 = getelementptr inbounds nuw i8, ptr %26, i64 8
  %32 = getelementptr inbounds nuw i8, ptr %19, i64 48
  %33 = getelementptr inbounds nuw i8, ptr %19, i64 56
  %34 = getelementptr inbounds nuw i8, ptr %19, i64 64
  %35 = getelementptr inbounds nuw i8, ptr %26, i64 16
  %36 = getelementptr inbounds nuw i8, ptr %3, i64 24
  %37 = load ptr, ptr %36, align 8, !tbaa !867
  br label %38

38:                                               ; preds = %.lr.ph, %71
  %.014 = phi i64 [ %16, %.lr.ph ], [ %73, %71 ]
  %.idx.i = mul nsw i64 %.014, 24
  %39 = getelementptr inbounds i8, ptr %17, i64 %.idx.i
  %40 = load double, ptr %39, align 8, !tbaa !132
  %41 = getelementptr inbounds nuw i8, ptr %39, i64 8
  %42 = load double, ptr %41, align 8, !tbaa !132
  %43 = fmul double %42, %22
  %44 = call double @llvm.fmuladd.f64(double %40, double %20, double %43)
  %45 = getelementptr inbounds nuw i8, ptr %39, i64 16
  %46 = load double, ptr %45, align 8, !tbaa !132
  %47 = call noundef double @llvm.fmuladd.f64(double %46, double %24, double %44)
  %48 = call noundef double @llvm.fabs.f64(double %47)
  %49 = fcmp ugt double %48, %27
  br i1 %49, label %70, label %50

50:                                               ; preds = %38
  %51 = load double, ptr %28, align 8, !tbaa !132
  %52 = load double, ptr %29, align 8, !tbaa !132
  %53 = fmul double %42, %52
  %54 = call double @llvm.fmuladd.f64(double %40, double %51, double %53)
  %55 = load double, ptr %30, align 8, !tbaa !132
  %56 = call noundef double @llvm.fmuladd.f64(double %46, double %55, double %54)
  %57 = call noundef double @llvm.fabs.f64(double %56)
  %58 = load double, ptr %31, align 8, !tbaa !132
  %59 = fcmp ugt double %57, %58
  br i1 %59, label %70, label %60

60:                                               ; preds = %50
  %61 = load double, ptr %32, align 8, !tbaa !132
  %62 = load double, ptr %33, align 8, !tbaa !132
  %63 = fmul double %42, %62
  %64 = call double @llvm.fmuladd.f64(double %40, double %61, double %63)
  %65 = load double, ptr %34, align 8, !tbaa !132
  %66 = call noundef double @llvm.fmuladd.f64(double %46, double %65, double %64)
  %67 = call noundef double @llvm.fabs.f64(double %66)
  %68 = load double, ptr %35, align 8, !tbaa !132
  %69 = fcmp ugt double %67, %68
  br i1 %69, label %70, label %71

70:                                               ; preds = %60, %50, %38
  br label %71

71:                                               ; preds = %70, %60
  %.sink.i = phi i8 [ 0, %70 ], [ 1, %60 ]
  %72 = getelementptr inbounds i8, ptr %37, i64 %.014
  store i8 %.sink.i, ptr %72, align 1, !tbaa !15
  %73 = add i64 %.014, 1
  %exitcond.not = icmp eq i64 %.014, %15
  br i1 %exitcond.not, label %._crit_edge, label %38

._crit_edge:                                      ; preds = %71, %11
  call void @__kmpc_for_static_fini(ptr nonnull @1, i32 %13)
  call void @llvm.lifetime.end.p0(i64 4, ptr nonnull %8) #26
  call void @llvm.lifetime.end.p0(i64 8, ptr nonnull %7) #26
  call void @llvm.lifetime.end.p0(i64 8, ptr nonnull %6) #26
  call void @llvm.lifetime.end.p0(i64 8, ptr nonnull %5) #26
  br label %74

74:                                               ; preds = %._crit_edge, %4
  ret void
}